target datalayout = "e-m:e-p270:32:32-p271:32:32-p272:64:64-i64:64-i128:128-f80:128-n8:16:32:64-S128"
target triple = "x86_64-pc-linux-gnu"

%struct.Plan = type { i32, i32, double, double, double, i32, i8, i8, i8, i32, ptr, ptr, ptr, ptr, ptr, ptr, ptr }
%struct.ForeignScanState = type { %struct.ScanState, ptr, i64, ptr, ptr, ptr }
%struct.ScanState = type { %struct.PlanState, ptr, ptr, ptr }
%struct.PlanState = type { i32, ptr, ptr, ptr, ptr, ptr, ptr, ptr, ptr, ptr, ptr, ptr, ptr, ptr, ptr, ptr, ptr, ptr, i8, ptr, ptr, ptr, ptr, ptr, i8, i8, i8, i8, i8, i8, i8, i8 }
%struct.FdwRoutine = type { i32, ptr, ptr, ptr, ptr, ptr, ptr, ptr, ptr, ptr, ptr, ptr, ptr, ptr, ptr, ptr, ptr, ptr, ptr, ptr, ptr, ptr, ptr, ptr, ptr, ptr, ptr, ptr, ptr, ptr, ptr, ptr, ptr, ptr, ptr, ptr, ptr, ptr, ptr, ptr, ptr, ptr, ptr, ptr, ptr, ptr }
%struct.ParallelWorkerContext = type { ptr, ptr }

; Function Attrs: nounwind uwtable
define dso_local void @ExecForeignScanInitializeWorker(ptr noundef %0, ptr noundef %1) #0 {
  %3 = alloca ptr, align 8
  %4 = alloca ptr, align 8
  %5 = alloca ptr, align 8
  %6 = alloca i32, align 4
  %7 = alloca ptr, align 8
  store ptr %0, ptr %3, align 8
  store ptr %1, ptr %4, align 8
  call void @llvm.lifetime.start.p0(i64 8, ptr %5) #5
  %8 = load ptr, ptr %3, align 8
  %9 = getelementptr inbounds nuw %struct.ForeignScanState, ptr %8, i32 0, i32 4
  %10 = load ptr, ptr %9, align 8
  store ptr %10, ptr %5, align 8
  %11 = load ptr, ptr %5, align 8
  %12 = getelementptr inbounds nuw %struct.FdwRoutine, ptr %11, i32 0, i32 39
  %13 = load ptr, ptr %12, align 8
  %14 = icmp ne ptr %13, null
  br i1 %14, label %15, label %37

15:                                               ; preds = %2
  call void @llvm.lifetime.start.p0(i64 4, ptr %6) #5
  %16 = load ptr, ptr %3, align 8
  %17 = getelementptr inbounds nuw %struct.ForeignScanState, ptr %16, i32 0, i32 0
  %18 = getelementptr inbounds nuw %struct.ScanState, ptr %17, i32 0, i32 0
  %19 = getelementptr inbounds nuw %struct.PlanState, ptr %18, i32 0, i32 1
  %20 = load ptr, ptr %19, align 8
  %21 = getelementptr inbounds nuw %struct.Plan, ptr %20, i32 0, i32 9
  %22 = load i32, ptr %21, align 8
  store i32 %22, ptr %6, align 4
  call void @llvm.lifetime.start.p0(i64 8, ptr %7) #5
  %23 = load ptr, ptr %4, align 8
  %24 = getelementptr inbounds nuw %struct.ParallelWorkerContext, ptr %23, i32 0, i32 1
  %25 = load ptr, ptr %24, align 8
  %26 = load i32, ptr %6, align 4
  %27 = sext i32 %26 to i64
  %28 = call ptr @shm_toc_lookup(ptr noundef %25, i64 noundef %27, i1 noundef zeroext false)
  store ptr %28, ptr %7, align 8
  %29 = load ptr, ptr %5, align 8
  %30 = getelementptr inbounds nuw %struct.FdwRoutine, ptr %29, i32 0, i32 39
  %31 = load ptr, ptr %30, align 8
  %32 = load ptr, ptr %3, align 8
  %33 = load ptr, ptr %4, align 8
  %34 = getelementptr inbounds nuw %struct.ParallelWorkerContext, ptr %33, i32 0, i32 1
  %35 = load ptr, ptr %34, align 8
  %36 = load ptr, ptr %7, align 8
  call void %31(ptr noundef %32, ptr noundef %35, ptr noundef %36)
  call void @llvm.lifetime.end.p0(i64 8, ptr %7) #5
  call void @llvm.lifetime.end.p0(i64 4, ptr %6) #5
  br label %37

37:                                               ; preds = %15, %2
  call void @llvm.lifetime.end.p0(i64 8, ptr %5) #5
  ret void
}